target datalayout = "e-m:e-p270:32:32-p271:32:32-p272:64:64-i64:64-i128:128-f80:128-n8:16:32:64-S128"
target triple = "x86_64-unknown-linux-gnu"

%"class.rocksdb::Slice" = type { ptr, i64 }
%struct.__toku_dbt = type { ptr, i64, i64, i32 }
%"class.std::__cxx11::basic_string" = type { %"struct.std::__cxx11::basic_string<char>::_Alloc_hider", i64, %union.anon }
%"struct.std::__cxx11::basic_string<char>::_Alloc_hider" = type { ptr }
%union.anon = type { i64, [8 x i8] }
%"class.rocksdb::Endpoint" = type <{ %"class.rocksdb::Slice", i8, [7 x i8] }>
%"struct.rocksdb::PointLockRequest" = type <{ i32, [4 x i8], %"class.std::__cxx11::basic_string", i64, i8, i8, [6 x i8] }>

; Function Attrs: mustprogress nounwind uwtable
define linkonce_odr void @_ZN7rocksdb8EndpointC2ERKNS_5SliceEb(ptr noundef nonnull align 8 dereferenceable(17) %this, ptr noundef nonnull align 8 dereferenceable(16) %slice_arg, i1 noundef zeroext %inf_suffix_arg) unnamed_addr #1 comdat align 2 {
entry:
  %this.addr = alloca ptr, align 8
  %slice_arg.addr = alloca ptr, align 8
  %inf_suffix_arg.addr = alloca i8, align 1
  store ptr %this, ptr %this.addr, align 8
  store ptr %slice_arg, ptr %slice_arg.addr, align 8
  %frombool = zext i1 %inf_suffix_arg to i8
  store i8 %frombool, ptr %inf_suffix_arg.addr, align 1
  %this1 = load ptr, ptr %this.addr, align 8
  %slice = getelementptr inbounds %"class.rocksdb::Endpoint", ptr %this1, i32 0, i32 0
  %0 = load ptr, ptr %slice_arg.addr, align 8
  call void @llvm.memcpy.p0.p0.i64(ptr align 8 %slice, ptr align 8 %0, i64 16, i1 false)
  %inf_suffix = getelementptr inbounds %"class.rocksdb::Endpoint", ptr %this1, i32 0, i32 1
  %1 = load i8, ptr %inf_suffix_arg.addr, align 1
  %tobool = trunc i8 %1 to i1
  %frombool2 = zext i1 %tobool to i8
  store i8 %frombool2, ptr %inf_suffix, align 8
  ret void
}

; Function Attrs: mustprogress nounwind uwtable
define linkonce_odr void @_ZN7rocksdb5SliceC2ERKNSt7__cxx1112basic_stringIcSt11char_traitsIcESaIcEEE(ptr noundef nonnull align 8 dereferenceable(16) %this, ptr noundef nonnull align 8 dereferenceable(32) %s) unnamed_addr #1 comdat align 2 {
entry:
  %this.addr = alloca ptr, align 8
  %s.addr = alloca ptr, align 8
  store ptr %this, ptr %this.addr, align 8
  store ptr %s, ptr %s.addr, align 8
  %this1 = load ptr, ptr %this.addr, align 8
  %data_ = getelementptr inbounds %"class.rocksdb::Slice", ptr %this1, i32 0, i32 0
  %0 = load ptr, ptr %s.addr, align 8
  %call = call noundef ptr @_ZNKSt7__cxx1112basic_stringIcSt11char_traitsIcESaIcEE4dataEv(ptr noundef nonnull align 8 dereferenceable(32) %0) #13
  store ptr %call, ptr %data_, align 8
  %size_ = getelementptr inbounds %"class.rocksdb::Slice", ptr %this1, i32 0, i32 1
  %1 = load ptr, ptr %s.addr, align 8
  %call2 = call noundef i64 @_ZNKSt7__cxx1112basic_stringIcSt11char_traitsIcESaIcEE4sizeEv(ptr noundef nonnull align 8 dereferenceable(32) %1) #13
  store i64 %call2, ptr %size_, align 8
  ret void
}

; Function Attrs: mustprogress uwtable
define void @_ZN7rocksdb20RangeTreeLockTracker5TrackERKNS_16PointLockRequestE(ptr noundef nonnull align 8 dereferenceable(16) %this, ptr noundef nonnull align 8 dereferenceable(50) %lock_req) unnamed_addr #0 align 2 personality ptr @__gxx_personality_v0 {
entry:
  %this.addr = alloca ptr, align 8
  %lock_req.addr = alloca ptr, align 8
  %key_dbt = alloca %struct.__toku_dbt, align 8
  %key = alloca %"class.std::__cxx11::basic_string", align 8
  %ref.tmp = alloca %"class.rocksdb::Endpoint", align 8
  %ref.tmp2 = alloca %"class.rocksdb::Slice", align 8
  %exn.slot = alloca ptr, align 8
  %ehselector.slot = alloca i32, align 4
  %rl = alloca ptr, align 8
  store ptr %this, ptr %this.addr, align 8
  store ptr %lock_req, ptr %lock_req.addr, align 8
  %this1 = load ptr, ptr %this.addr, align 8
  call void @_ZNSt7__cxx1112basic_stringIcSt11char_traitsIcESaIcEEC1Ev(ptr noundef nonnull align 8 dereferenceable(32) %key) #13
  %0 = load ptr, ptr %lock_req.addr, align 8
  %key3 = getelementptr inbounds %"struct.rocksdb::PointLockRequest", ptr %0, i32 0, i32 2
  invoke void @_ZN7rocksdb5SliceC2ERKNSt7__cxx1112basic_stringIcSt11char_traitsIcESaIcEEE(ptr noundef nonnull align 8 dereferenceable(16) %ref.tmp2, ptr noundef nonnull align 8 dereferenceable(32) %key3)
          to label %invoke.cont unwind label %lpad

invoke.cont:                                      ; preds = %entry
  invoke void @_ZN7rocksdb8EndpointC2ERKNS_5SliceEb(ptr noundef nonnull align 8 dereferenceable(17) %ref.tmp, ptr noundef nonnull align 8 dereferenceable(16) %ref.tmp2, i1 noundef zeroext false)
          to label %invoke.cont4 unwind label %lpad

invoke.cont4:                                     ; preds = %invoke.cont
  invoke void @_ZN7rocksdb18serialize_endpointERKNS_8EndpointEPNSt7__cxx1112basic_stringIcSt11char_traitsIcESaIcEEE(ptr noundef nonnull align 8 dereferenceable(17) %ref.tmp, ptr noundef %key)
          to label %invoke.cont5 unwind label %lpad

invoke.cont5:                                     ; preds = %invoke.cont4
  %call = call noundef ptr @_ZNSt7__cxx1112basic_stringIcSt11char_traitsIcESaIcEE4dataEv(ptr noundef nonnull align 8 dereferenceable(32) %key) #13
  %call6 = call noundef i64 @_ZNKSt7__cxx1112basic_stringIcSt11char_traitsIcESaIcEE4sizeEv(ptr noundef nonnull align 8 dereferenceable(32) %key) #13
  %call8 = invoke noundef ptr @_Z13toku_fill_dbtP10__toku_dbtPKvm(ptr noundef %key_dbt, ptr noundef %call, i64 noundef %call6)
          to label %invoke.cont7 unwind label %lpad

invoke.cont7:                                     ; preds = %invoke.cont5
  %call10 = invoke noundef ptr @_ZN7rocksdb20RangeTreeLockTracker15getOrCreateListEv(ptr noundef nonnull align 8 dereferenceable(16) %this1)
          to label %invoke.cont9 unwind label %lpad

invoke.cont9:                                     ; preds = %invoke.cont7
  store ptr %call10, ptr %rl, align 8
  %1 = load ptr, ptr %rl, align 8
  %2 = load ptr, ptr %lock_req.addr, align 8
  %column_family_id = getelementptr inbounds %"struct.rocksdb::PointLockRequest", ptr %2, i32 0, i32 0
  %3 = load i32, ptr %column_family_id, align 8
  invoke void @_ZN7rocksdb13RangeLockList6AppendEjPK10__toku_dbtS3_(ptr noundef nonnull align 8 dereferenceable(97) %1, i32 noundef %3, ptr noundef %key_dbt, ptr noundef %key_dbt)
          to label %invoke.cont11 unwind label %lpad

invoke.cont11:                                    ; preds = %invoke.cont9
  call void @_ZNSt7__cxx1112basic_stringIcSt11char_traitsIcESaIcEED1Ev(ptr noundef nonnull align 8 dereferenceable(32) %key) #13
  ret void

lpad:                                             ; preds = %invoke.cont9, %invoke.cont7, %invoke.cont5, %invoke.cont4, %invoke.cont, %entry
  %4 = landingpad { ptr, i32 }
          cleanup
  %5 = extractvalue { ptr, i32 } %4, 0
  store ptr %5, ptr %exn.slot, align 8
  %6 = extractvalue { ptr, i32 } %4, 1
  store i32 %6, ptr %ehselector.slot, align 4
  call void @_ZNSt7__cxx1112basic_stringIcSt11char_traitsIcESaIcEED1Ev(ptr noundef nonnull align 8 dereferenceable(32) %key) #13
  br label %eh.resume

eh.resume:                                        ; preds = %lpad
  %exn = load ptr, ptr %exn.slot, align 8
  %sel = load i32, ptr %ehselector.slot, align 4
  %lpad.val = insertvalue { ptr, i32 } poison, ptr %exn, 0
  %lpad.val12 = insertvalue { ptr, i32 } %lpad.val, i32 %sel, 1
  resume { ptr, i32 } %lpad.val12
}