; Function Attrs: mustprogress uwtable
define void @_ZN7rocksdb20RangeTreeLockTracker5TrackERKNS_16PointLockRequestE(ptr nocapture noundef nonnull align 8 dereferenceable(16) %this, ptr noundef nonnull align 8 dereferenceable(50) %lock_req) unnamed_addr #0 align 2 personality ptr @__gxx_personality_v0 {
entry:
  %key_dbt = alloca %struct.__toku_dbt, align 8
  %key = alloca %"class.std::__cxx11::basic_string", align 8
  %ref.tmp = alloca %"class.rocksdb::Endpoint", align 8
  call void @_ZNSt7__cxx1112basic_stringIcSt11char_traitsIcESaIcEEC1Ev(ptr noundef nonnull align 8 dereferenceable(32) %key) #13
  %key3 = getelementptr inbounds i8, ptr %lock_req, i64 8
  %call.i = call noundef ptr @_ZNKSt7__cxx1112basic_stringIcSt11char_traitsIcESaIcEE4dataEv(ptr noundef nonnull align 8 dereferenceable(32) %key3) #13
  %call2.i = call noundef i64 @_ZNKSt7__cxx1112basic_stringIcSt11char_traitsIcESaIcEE4sizeEv(ptr noundef nonnull align 8 dereferenceable(32) %key3) #13
  store ptr %call.i, ptr %ref.tmp, align 8
  %ref.tmp2.sroa.2.0.ref.tmp.sroa_idx = getelementptr inbounds i8, ptr %ref.tmp, i64 8
  store i64 %call2.i, ptr %ref.tmp2.sroa.2.0.ref.tmp.sroa_idx, align 8
  %inf_suffix.i = getelementptr inbounds i8, ptr %ref.tmp, i64 16
  store i8 0, ptr %inf_suffix.i, align 8
  invoke void @_ZN7rocksdb18serialize_endpointERKNS_8EndpointEPNSt7__cxx1112basic_stringIcSt11char_traitsIcESaIcEEE(ptr noundef nonnull align 8 dereferenceable(17) %ref.tmp, ptr noundef nonnull %key)
          to label %invoke.cont5 unwind label %lpad

invoke.cont5:                                     ; preds = %entry
  %call = call noundef ptr @_ZNSt7__cxx1112basic_stringIcSt11char_traitsIcESaIcEE4dataEv(ptr noundef nonnull align 8 dereferenceable(32) %key) #13
  %call6 = call noundef i64 @_ZNKSt7__cxx1112basic_stringIcSt11char_traitsIcESaIcEE4sizeEv(ptr noundef nonnull align 8 dereferenceable(32) %key) #13
  %call8 = invoke noundef ptr @_Z13toku_fill_dbtP10__toku_dbtPKvm(ptr noundef nonnull %key_dbt, ptr noundef %call, i64 noundef %call6)
          to label %invoke.cont7 unwind label %lpad

invoke.cont7:                                     ; preds = %invoke.cont5
  %call10 = invoke noundef ptr @_ZN7rocksdb20RangeTreeLockTracker15getOrCreateListEv(ptr noundef nonnull align 8 dereferenceable(16) %this)
          to label %invoke.cont9 unwind label %lpad

invoke.cont9:                                     ; preds = %invoke.cont7
  %0 = load i32, ptr %lock_req, align 8
  invoke void @_ZN7rocksdb13RangeLockList6AppendEjPK10__toku_dbtS3_(ptr noundef nonnull align 8 dereferenceable(97) %call10, i32 noundef %0, ptr noundef nonnull %key_dbt, ptr noundef nonnull %key_dbt)
          to label %invoke.cont11 unwind label %lpad

invoke.cont11:                                    ; preds = %invoke.cont9
  call void @_ZNSt7__cxx1112basic_stringIcSt11char_traitsIcESaIcEED1Ev(ptr noundef nonnull align 8 dereferenceable(32) %key) #13
  ret void

lpad:                                             ; preds = %invoke.cont9, %invoke.cont7, %invoke.cont5, %entry
  %1 = landingpad { ptr, i32 }
          cleanup
  call void @_ZNSt7__cxx1112basic_stringIcSt11char_traitsIcESaIcEED1Ev(ptr noundef nonnull align 8 dereferenceable(32) %key) #13
  resume { ptr, i32 } %1
}